; Function Attrs: nounwind uwtable
define hidden noundef zeroext i1 @je_background_thread_create(ptr noundef %0, i32 noundef %1) local_unnamed_addr #0 {
  %3 = tail call i32 @pthread_mutex_trylock(ptr noundef nonnull getelementptr inbounds nuw (i8, ptr @je_background_thread_lock, i64 72)) #12
  %.not.i = icmp eq i32 %3, 0
  br i1 %.not.i, label %malloc_mutex_trylock_final.exit.i, label %4

malloc_mutex_trylock_final.exit.i:                ; preds = %2
  store atomic i8 1, ptr getelementptr inbounds nuw (i8, ptr @je_background_thread_lock, i64 64) monotonic, align 8
  br label %5

4:                                                ; preds = %2
  tail call void @je_malloc_mutex_lock_slow(ptr noundef nonnull @je_background_thread_lock) #12
  br label %5

5:                                                ; preds = %4, %malloc_mutex_trylock_final.exit.i
  %6 = load i64, ptr getelementptr inbounds nuw (i8, ptr @je_background_thread_lock, i64 56), align 8, !tbaa !8
  %7 = add i64 %6, 1
  store i64 %7, ptr getelementptr inbounds nuw (i8, ptr @je_background_thread_lock, i64 56), align 8, !tbaa !8
  %8 = load ptr, ptr getelementptr inbounds nuw (i8, ptr @je_background_thread_lock, i64 48), align 8, !tbaa !15
  %.not.i.i = icmp eq ptr %8, %0
  br i1 %.not.i.i, label %malloc_mutex_lock.exit, label %9

9:                                                ; preds = %5
  store ptr %0, ptr getelementptr inbounds nuw (i8, ptr @je_background_thread_lock, i64 48), align 8, !tbaa !15
  %10 = load i64, ptr getelementptr inbounds nuw (i8, ptr @je_background_thread_lock, i64 40), align 8, !tbaa !16
  %11 = add i64 %10, 1
  store i64 %11, ptr getelementptr inbounds nuw (i8, ptr @je_background_thread_lock, i64 40), align 8, !tbaa !16
  br label %malloc_mutex_lock.exit

malloc_mutex_lock.exit:                           ; preds = %5, %9
  %12 = tail call fastcc zeroext i1 @background_thread_create_locked(ptr noundef %0, i32 noundef %1)
  store atomic i8 0, ptr getelementptr inbounds nuw (i8, ptr @je_background_thread_lock, i64 64) monotonic, align 8
  %13 = tail call i32 @pthread_mutex_unlock(ptr noundef nonnull getelementptr inbounds nuw (i8, ptr @je_background_thread_lock, i64 72)) #12
  ret i1 %12
}